; Function Attrs: nofree norecurse nosync nounwind memory(argmem: readwrite) uwtable
define internal void @DC16NoLeft_C(ptr noundef captures(none) %0) #3 {
  br label %2

2:                                                ; preds = %1, %2
  %indvars.iv = phi i64 [ 0, %1 ], [ %indvars.iv.next, %2 ]
  %.067 = phi i32 [ 8, %1 ], [ %7, %2 ]
  %3 = or disjoint i64 %indvars.iv, -32
  %4 = getelementptr inbounds i8, ptr %0, i64 %3
  %5 = load i8, ptr %4, align 1, !tbaa !14
  %6 = zext i8 %5 to i32
  %7 = add nuw nsw i32 %.067, %6
  %indvars.iv.next = add nuw nsw i64 %indvars.iv, 1
  %exitcond.not = icmp eq i64 %indvars.iv.next, 16
  br i1 %exitcond.not, label %8, label %2, !llvm.loop !35

8:                                                ; preds = %2
  %9 = lshr i32 %7, 4
  %10 = trunc i32 %9 to i8
  br label %11

11:                                               ; preds = %11, %8
  %indvars.iv.i = phi i64 [ 0, %8 ], [ %indvars.iv.next.i, %11 ]
  %12 = shl nuw nsw i64 %indvars.iv.i, 5
  %13 = getelementptr inbounds nuw i8, ptr %0, i64 %12
  tail call void @llvm.memset.p0.i64(ptr noundef nonnull align 1 dereferenceable(16) %13, i8 %10, i64 16, i1 false)
  %indvars.iv.next.i = add nuw nsw i64 %indvars.iv.i, 1
  %exitcond.not.i = icmp eq i64 %indvars.iv.next.i, 16
  br i1 %exitcond.not.i, label %Put16.exit, label %11, !llvm.loop !31

Put16.exit:                                       ; preds = %11
  ret void
}